target datalayout = "e-m:e-p270:32:32-p271:32:32-p272:64:64-i64:64-i128:128-f80:128-n8:16:32:64-S128"
target triple = "x86_64-pc-linux-gnu"

%"class.icu_77::UObject" = type { ptr }
%"class.icu_77::UVector" = type { %"class.icu_77::UObject", i32, i32, ptr, ptr, ptr }

; Function Attrs: inlinehint mustprogress nounwind uwtable
define linkonce_odr noundef i32 @_ZNK6icu_777UVector4sizeEv(ptr noundef nonnull align 8 dereferenceable(40) %0) #3 comdat align 2 {
  %2 = alloca ptr, align 8
  store ptr %0, ptr %2, align 8, !tbaa !49
  %3 = load ptr, ptr %2, align 8
  %4 = getelementptr inbounds nuw %"class.icu_77::UVector", ptr %3, i32 0, i32 1
  %5 = load i32, ptr %4, align 8, !tbaa !50
  ret i32 %5
}

; Function Attrs: inlinehint mustprogress nounwind uwtable
define internal noundef signext i8 @_ZL9U_FAILURE10UErrorCode(i32 noundef %0) #3 {
  %2 = alloca i32, align 4
  store i32 %0, ptr %2, align 4, !tbaa !45
  %3 = load i32, ptr %2, align 4, !tbaa !45
  %4 = icmp sgt i32 %3, 0
  %5 = zext i1 %4 to i8
  ret i8 %5
}

; Function Attrs: mustprogress uwtable
define internal noundef ptr @_ZN6icu_77L17createRuleByRDATEERKNS_13UnicodeStringEiidPNS_7UVectorEiR10UErrorCode(ptr noundef nonnull align 8 dereferenceable(64) %0, i32 noundef %1, i32 noundef %2, double noundef %3, ptr noundef %4, i32 noundef %5, ptr noundef nonnull align 4 dereferenceable(4) %6) #1 personality ptr @__gxx_personality_v0 {
  %8 = alloca ptr, align 8
  %9 = alloca ptr, align 8
  %10 = alloca i32, align 4
  %11 = alloca i32, align 4
  %12 = alloca double, align 8
  %13 = alloca ptr, align 8
  %14 = alloca i32, align 4
  %15 = alloca ptr, align 8
  %16 = alloca ptr, align 8
  %17 = alloca ptr, align 8
  %18 = alloca i1, align 1
  %19 = alloca ptr, align 8
  %20 = alloca i32, align 4
  %21 = alloca i32, align 4
  %22 = alloca ptr, align 8
  %23 = alloca i32, align 4
  %24 = alloca i32, align 4
  %25 = alloca ptr, align 8
  %26 = alloca ptr, align 8
  %27 = alloca i1, align 1
  store ptr %0, ptr %9, align 8, !tbaa !8
  store i32 %1, ptr %10, align 4, !tbaa !18
  store i32 %2, ptr %11, align 4, !tbaa !18
  store double %3, ptr %12, align 8, !tbaa !77
  store ptr %4, ptr %13, align 8, !tbaa !49
  store i32 %5, ptr %14, align 4, !tbaa !18
  store ptr %6, ptr %15, align 8, !tbaa !55
  %28 = load ptr, ptr %15, align 8, !tbaa !55
  %29 = load i32, ptr %28, align 4, !tbaa !45
  %30 = call noundef signext i8 @_ZL9U_FAILURE10UErrorCode(i32 noundef %29)
  %31 = icmp ne i8 %30, 0
  br i1 %31, label %32, label %33

32:                                               ; preds = %7
  store ptr null, ptr %8, align 8
  br label %135

33:                                               ; preds = %7
  call void @llvm.lifetime.start.p0(i64 8, ptr %16) #11
  store ptr null, ptr %16, align 8, !tbaa !114
  %34 = load ptr, ptr %13, align 8, !tbaa !49
  %35 = icmp eq ptr %34, null
  br i1 %35, label %40, label %36

36:                                               ; preds = %33
  %37 = load ptr, ptr %13, align 8, !tbaa !49
  %38 = call noundef i32 @_ZNK6icu_777UVector4sizeEv(ptr noundef nonnull align 8 dereferenceable(40) %37)
  %39 = icmp eq i32 %38, 0
  br i1 %39, label %40, label %58

40:                                               ; preds = %36, %33
  %41 = call noundef ptr @_ZN6icu_777UMemorynwEm(i64 noundef 352) #11
  %42 = icmp eq ptr %41, null
  store i1 false, ptr %18, align 1
  br i1 %42, label %48, label %43

43:                                               ; preds = %40
  store ptr %41, ptr %17, align 8
  store i1 true, ptr %18, align 1
  %44 = load ptr, ptr %9, align 8, !tbaa !8
  %45 = load i32, ptr %10, align 4, !tbaa !18
  %46 = load i32, ptr %11, align 4, !tbaa !18
  invoke void @_ZN6icu_7721TimeArrayTimeZoneRuleC1ERKNS_13UnicodeStringEiiPKdiNS_12DateTimeRule12TimeRuleTypeE(ptr noundef nonnull align 8 dereferenceable(352) %41, ptr noundef nonnull align 8 dereferenceable(64) %44, i32 noundef %45, i32 noundef %46, ptr noundef %12, i32 noundef 1, i32 noundef 2)
          to label %47 unwind label %50

47:                                               ; preds = %43
  br label %48

48:                                               ; preds = %47, %40
  %49 = phi ptr [ %41, %47 ], [ null, %40 ]
  store ptr %49, ptr %16, align 8, !tbaa !114
  br label %126

50:                                               ; preds = %43
  %51 = landingpad { ptr, i32 }
          cleanup
  %52 = extractvalue { ptr, i32 } %51, 0
  store ptr %52, ptr %19, align 8
  %53 = extractvalue { ptr, i32 } %51, 1
  store i32 %53, ptr %20, align 4
  %54 = load i1, ptr %18, align 1
  br i1 %54, label %55, label %57

55:                                               ; preds = %50
  %56 = load ptr, ptr %17, align 8
  call void @_ZN6icu_777UMemorydlEPv(ptr noundef %56) #11
  br label %57

57:                                               ; preds = %55, %50
  br label %134

58:                                               ; preds = %36
  call void @llvm.lifetime.start.p0(i64 4, ptr %21) #11
  %59 = load ptr, ptr %13, align 8, !tbaa !49
  %60 = call noundef i32 @_ZNK6icu_777UVector4sizeEv(ptr noundef nonnull align 8 dereferenceable(40) %59)
  store i32 %60, ptr %21, align 4, !tbaa !18
  call void @llvm.lifetime.start.p0(i64 8, ptr %22) #11
  %61 = load i32, ptr %21, align 4, !tbaa !18
  %62 = sext i32 %61 to i64
  %63 = mul i64 8, %62
  %64 = call noalias ptr @uprv_malloc_77(i64 noundef %63) #13
  store ptr %64, ptr %22, align 8, !tbaa !75
  %65 = load ptr, ptr %22, align 8, !tbaa !75
  %66 = icmp eq ptr %65, null
  br i1 %66, label %67, label %69

67:                                               ; preds = %58
  %68 = load ptr, ptr %15, align 8, !tbaa !55
  store i32 7, ptr %68, align 4, !tbaa !45
  store ptr null, ptr %8, align 8
  store i32 1, ptr %23, align 4
  br label %115

69:                                               ; preds = %58
  call void @llvm.lifetime.start.p0(i64 4, ptr %24) #11
  store i32 0, ptr %24, align 4, !tbaa !18
  br label %70

70:                                               ; preds = %97, %69
  %71 = load i32, ptr %24, align 4, !tbaa !18
  %72 = load i32, ptr %21, align 4, !tbaa !18
  %73 = icmp slt i32 %71, %72
  br i1 %73, label %75, label %74

74:                                               ; preds = %70
  store i32 2, ptr %23, align 4
  br label %100

75:                                               ; preds = %70
  call void @llvm.lifetime.start.p0(i64 8, ptr %25) #11
  %76 = load ptr, ptr %13, align 8, !tbaa !49
  %77 = load i32, ptr %24, align 4, !tbaa !18
  %78 = call noundef ptr @_ZNK6icu_777UVector9elementAtEi(ptr noundef nonnull align 8 dereferenceable(40) %76, i32 noundef %77)
  store ptr %78, ptr %25, align 8, !tbaa !8
  %79 = load ptr, ptr %25, align 8, !tbaa !8
  %80 = load i32, ptr %14, align 4, !tbaa !18
  %81 = load ptr, ptr %15, align 8, !tbaa !55
  %82 = call noundef double @_ZN6icu_77L19parseDateTimeStringERKNS_13UnicodeStringEiR10UErrorCode(ptr noundef nonnull align 8 dereferenceable(64) %79, i32 noundef %80, ptr noundef nonnull align 4 dereferenceable(4) %81)
  %83 = load ptr, ptr %22, align 8, !tbaa !75
  %84 = load i32, ptr %24, align 4, !tbaa !18
  %85 = sext i32 %84 to i64
  %86 = getelementptr inbounds double, ptr %83, i64 %85
  store double %82, ptr %86, align 8, !tbaa !77
  %87 = load ptr, ptr %15, align 8, !tbaa !55
  %88 = load i32, ptr %87, align 4, !tbaa !45
  %89 = call noundef signext i8 @_ZL9U_FAILURE10UErrorCode(i32 noundef %88)
  %90 = icmp ne i8 %89, 0
  br i1 %90, label %91, label %93

91:                                               ; preds = %75
  %92 = load ptr, ptr %22, align 8, !tbaa !75
  call void @uprv_free_77(ptr noundef %92)
  store ptr null, ptr %8, align 8
  store i32 1, ptr %23, align 4
  br label %94

93:                                               ; preds = %75
  store i32 0, ptr %23, align 4
  br label %94

94:                                               ; preds = %93, %91
  call void @llvm.lifetime.end.p0(i64 8, ptr %25) #11
  %95 = load i32, ptr %23, align 4
  switch i32 %95, label %100 [
    i32 0, label %96
  ]

96:                                               ; preds = %94
  br label %97

97:                                               ; preds = %96
  %98 = load i32, ptr %24, align 4, !tbaa !18
  %99 = add nsw i32 %98, 1
  store i32 %99, ptr %24, align 4, !tbaa !18
  br label %70, !llvm.loop !116

100:                                              ; preds = %94, %74
  call void @llvm.lifetime.end.p0(i64 4, ptr %24) #11
  %101 = load i32, ptr %23, align 4
  switch i32 %101, label %115 [
    i32 2, label %102
  ]

102:                                              ; preds = %100
  %103 = call noundef ptr @_ZN6icu_777UMemorynwEm(i64 noundef 352) #11
  %104 = icmp eq ptr %103, null
  store i1 false, ptr %27, align 1
  br i1 %104, label %112, label %105

105:                                              ; preds = %102
  store ptr %103, ptr %26, align 8
  store i1 true, ptr %27, align 1
  %106 = load ptr, ptr %9, align 8, !tbaa !8
  %107 = load i32, ptr %10, align 4, !tbaa !18
  %108 = load i32, ptr %11, align 4, !tbaa !18
  %109 = load ptr, ptr %22, align 8, !tbaa !75
  %110 = load i32, ptr %21, align 4, !tbaa !18
  invoke void @_ZN6icu_7721TimeArrayTimeZoneRuleC1ERKNS_13UnicodeStringEiiPKdiNS_12DateTimeRule12TimeRuleTypeE(ptr noundef nonnull align 8 dereferenceable(352) %103, ptr noundef nonnull align 8 dereferenceable(64) %106, i32 noundef %107, i32 noundef %108, ptr noundef %109, i32 noundef %110, i32 noundef 2)
          to label %111 unwind label %118

111:                                              ; preds = %105
  br label %112

112:                                              ; preds = %111, %102
  %113 = phi ptr [ %103, %111 ], [ null, %102 ]
  store ptr %113, ptr %16, align 8, !tbaa !114
  %114 = load ptr, ptr %22, align 8, !tbaa !75
  call void @uprv_free_77(ptr noundef %114)
  store i32 0, ptr %23, align 4
  br label %115

115:                                              ; preds = %112, %100, %67
  call void @llvm.lifetime.end.p0(i64 8, ptr %22) #11
  call void @llvm.lifetime.end.p0(i64 4, ptr %21) #11
  %116 = load i32, ptr %23, align 4
  switch i32 %116, label %133 [
    i32 0, label %117
  ]

117:                                              ; preds = %115
  br label %126

118:                                              ; preds = %105
  %119 = landingpad { ptr, i32 }
          cleanup
  %120 = extractvalue { ptr, i32 } %119, 0
  store ptr %120, ptr %19, align 8
  %121 = extractvalue { ptr, i32 } %119, 1
  store i32 %121, ptr %20, align 4
  %122 = load i1, ptr %27, align 1
  br i1 %122, label %123, label %125

123:                                              ; preds = %118
  %124 = load ptr, ptr %26, align 8
  call void @_ZN6icu_777UMemorydlEPv(ptr noundef %124) #11
  br label %125

125:                                              ; preds = %123, %118
  call void @llvm.lifetime.end.p0(i64 8, ptr %22) #11
  call void @llvm.lifetime.end.p0(i64 4, ptr %21) #11
  br label %134

126:                                              ; preds = %117, %48
  %127 = load ptr, ptr %16, align 8, !tbaa !114
  %128 = icmp eq ptr %127, null
  br i1 %128, label %129, label %131

129:                                              ; preds = %126
  %130 = load ptr, ptr %15, align 8, !tbaa !55
  store i32 7, ptr %130, align 4, !tbaa !45
  br label %131

131:                                              ; preds = %129, %126
  %132 = load ptr, ptr %16, align 8, !tbaa !114
  store ptr %132, ptr %8, align 8
  store i32 1, ptr %23, align 4
  br label %133

133:                                              ; preds = %131, %115
  call void @llvm.lifetime.end.p0(i64 8, ptr %16) #11
  br label %135

134:                                              ; preds = %125, %57
  call void @llvm.lifetime.end.p0(i64 8, ptr %16) #11
  br label %137

135:                                              ; preds = %133, %32
  %136 = load ptr, ptr %8, align 8
  ret ptr %136

137:                                              ; preds = %134
  %138 = load ptr, ptr %19, align 8
  %139 = load i32, ptr %20, align 4
  %140 = insertvalue { ptr, i32 } poison, ptr %138, 0
  %141 = insertvalue { ptr, i32 } %140, i32 %139, 1
  resume { ptr, i32 } %141
}