; Function Attrs: mustprogress uwtable
define internal fastcc noundef ptr @_ZN6icu_77L17createRuleByRDATEERKNS_13UnicodeStringEiidPNS_7UVectorEiR10UErrorCode(ptr noundef nonnull align 8 dereferenceable(64) %0, i32 noundef %1, i32 noundef range(i32 0, -2147483648) %2, double noundef %3, ptr noundef nonnull %4, i32 noundef %5, ptr noundef nonnull align 4 captures(none) dereferenceable(4) %6) unnamed_addr #2 personality ptr @__gxx_personality_v0 {
  %8 = alloca double, align 8
  store double %3, ptr %8, align 8, !tbaa !45
  %9 = load i32, ptr %6, align 4, !tbaa !31
  %10 = icmp slt i32 %9, 1
  br i1 %10, label %11, label %.thread64

11:                                               ; preds = %7
  %12 = getelementptr inbounds nuw i8, ptr %4, i64 8
  %13 = load i32, ptr %12, align 8, !tbaa !33
  %14 = icmp eq i32 %13, 0
  br i1 %14, label %15, label %21

15:                                               ; preds = %11
  %16 = tail call noundef ptr @_ZN6icu_777UMemorynwEm(i64 noundef 352) #16
  %17 = icmp eq ptr %16, null
  br i1 %17, label %.thread61, label %18

18:                                               ; preds = %15
  invoke void @_ZN6icu_7721TimeArrayTimeZoneRuleC1ERKNS_13UnicodeStringEiiPKdiNS_12DateTimeRule12TimeRuleTypeE(ptr noundef nonnull align 8 dereferenceable(352) %16, ptr noundef nonnull align 8 dereferenceable(64) %0, i32 noundef %1, i32 noundef %2, ptr noundef nonnull %8, i32 noundef 1, i32 noundef 2)
          to label %.thread64 unwind label %19

19:                                               ; preds = %18
  %20 = landingpad { ptr, i32 }
          cleanup
  call void @_ZN6icu_777UMemorydlEPv(ptr noundef nonnull %16) #16
  br label %41

21:                                               ; preds = %11
  %22 = sext i32 %13 to i64
  %23 = shl nsw i64 %22, 3
  %24 = tail call noalias ptr @uprv_malloc_77(i64 noundef %23) #17
  %25 = icmp eq ptr %24, null
  br i1 %25, label %26, label %.preheader

.preheader:                                       ; preds = %21
  %.not5567 = icmp sgt i32 %13, 0
  br i1 %.not5567, label %.critedge.preheader, label %.critedge58

.critedge.preheader:                              ; preds = %.preheader
  %wide.trip.count = zext nneg i32 %13 to i64
  br label %.critedge

26:                                               ; preds = %21
  store i32 7, ptr %6, align 4, !tbaa !31
  br label %.thread64

27:                                               ; preds = %.critedge
  %indvars.iv.next = add nuw nsw i64 %indvars.iv, 1
  %exitcond.not = icmp eq i64 %indvars.iv.next, %wide.trip.count
  br i1 %exitcond.not, label %.critedge58, label %.critedge, !llvm.loop !71

.critedge:                                        ; preds = %.critedge.preheader, %27
  %indvars.iv = phi i64 [ 0, %.critedge.preheader ], [ %indvars.iv.next, %27 ]
  %28 = trunc nuw nsw i64 %indvars.iv to i32
  %29 = tail call noundef ptr @_ZNK6icu_777UVector9elementAtEi(ptr noundef nonnull align 8 dereferenceable(40) %4, i32 noundef %28)
  %30 = tail call fastcc noundef double @_ZN6icu_77L19parseDateTimeStringERKNS_13UnicodeStringEiR10UErrorCode(ptr noundef nonnull align 8 dereferenceable(64) %29, i32 noundef %5, ptr noundef nonnull align 4 dereferenceable(4) %6)
  %31 = getelementptr inbounds nuw double, ptr %24, i64 %indvars.iv
  store double %30, ptr %31, align 8, !tbaa !45
  %32 = load i32, ptr %6, align 4, !tbaa !31
  %33 = icmp slt i32 %32, 1
  br i1 %33, label %27, label %34

34:                                               ; preds = %.critedge
  tail call void @uprv_free_77(ptr noundef nonnull %24)
  br label %.thread64

.critedge58:                                      ; preds = %27, %.preheader
  %35 = tail call noundef ptr @_ZN6icu_777UMemorynwEm(i64 noundef 352) #16
  %36 = icmp eq ptr %35, null
  br i1 %36, label %.thread66, label %37

.thread66:                                        ; preds = %.critedge58
  tail call void @uprv_free_77(ptr noundef nonnull %24)
  br label %.thread61

37:                                               ; preds = %.critedge58
  invoke void @_ZN6icu_7721TimeArrayTimeZoneRuleC1ERKNS_13UnicodeStringEiiPKdiNS_12DateTimeRule12TimeRuleTypeE(ptr noundef nonnull align 8 dereferenceable(352) %35, ptr noundef nonnull align 8 dereferenceable(64) %0, i32 noundef %1, i32 noundef %2, ptr noundef nonnull %24, i32 noundef %13, i32 noundef 2)
          to label %40 unwind label %38

38:                                               ; preds = %37
  %39 = landingpad { ptr, i32 }
          cleanup
  tail call void @_ZN6icu_777UMemorydlEPv(ptr noundef nonnull %35) #16
  br label %41

40:                                               ; preds = %37
  tail call void @uprv_free_77(ptr noundef nonnull %24)
  br label %.thread64

.thread61:                                        ; preds = %15, %.thread66
  store i32 7, ptr %6, align 4, !tbaa !31
  br label %.thread64

41:                                               ; preds = %19, %38
  %.pn = phi { ptr, i32 } [ %20, %19 ], [ %39, %38 ]
  resume { ptr, i32 } %.pn

.thread64:                                        ; preds = %34, %26, %18, %40, %.thread61, %7
  %.0 = phi ptr [ null, %7 ], [ null, %.thread61 ], [ %35, %40 ], [ %16, %18 ], [ null, %26 ], [ null, %34 ]
  ret ptr %.0
}